(dp1
S'Estonian'
p2
S'http://www.artsandscience.utoronto.ca/ofr/calendar/crs_est.htm'
p3
sS'University College'
p4
S'http://www.artsandscience.utoronto.ca/ofr/calendar/crs_uni.htm'
p5
sS'Biochemistry'
p6
S'http://www.artsandscience.utoronto.ca/ofr/calendar/crs_bch.htm'
p7
sS'Astronomy and Astrophysics'
p8
S'http://www.artsandscience.utoronto.ca/ofr/calendar/crs_ast.htm'
p9
sS'Religion'
p10
S'http://www.artsandscience.utoronto.ca/ofr/calendar/crs_rlg.htm'
p11
sS'Slavic Languages and Literatures'
p12
S'http://www.artsandscience.utoronto.ca/ofr/calendar/crs_sla.htm'
p13
sS'Trinity College'
p14
S'http://www.artsandscience.utoronto.ca/ofr/calendar/crs_trn.htm'
p15
sS'Philosophy'
p16
S'http://www.artsandscience.utoronto.ca/ofr/calendar/crs_phl.htm'
p17
sS'Asian Studies, Contemporary'
p18
S'http://www.artsandscience.utoronto.ca/ofr/calendar/crs_asi.htm'
p19
sS'French'
p20
S'http://www.artsandscience.utoronto.ca/ofr/calendar/crs_fre.htm'
p21
sS'Anthropology'
p22
S'http://www.artsandscience.utoronto.ca/ofr/calendar/crs_ant.htm'
p23
sS'Computer Science'
p24
S'http://www.artsandscience.utoronto.ca/ofr/calendar/crs_csc.htm'
p25
sS'Woodsworth College'
p26
S'http://www.artsandscience.utoronto.ca/ofr/calendar/crs_wdw.htm'
p27
sS'Finnish'
p28
S'http://www.artsandscience.utoronto.ca/ofr/calendar/crs_fin.htm'
p29
sS'Kinesiology &amp; Physical Education'
p30
S'http://www.artsandscience.utoronto.ca/ofr/calendar/crs_phe.htm'
p31
sS'Molecular Genetics and Microbiology'
p32
S'http://www.artsandscience.utoronto.ca/ofr/calendar/crs_mgy.htm'
p33
sS'Cognitive Science'
p34
S'http://www.artsandscience.utoronto.ca/ofr/calendar/crs_cog.htm'
p35
sS'Latin American Studies'
p36
S'http://www.artsandscience.utoronto.ca/ofr/calendar/crs_las.htm'
p37
sS'Classics'
p38
S'http://www.artsandscience.utoronto.ca/ofr/calendar/crs_cla.htm'
p39
sS'Italian'
p40
S'http://www.artsandscience.utoronto.ca/ofr/calendar/crs_ita.htm'
p41
sS'Art'
p42
S'http://www.artsandscience.utoronto.ca/ofr/calendar/crs_fah.htm'
p43
sS'New College'
p44
S'http://www.artsandscience.utoronto.ca/ofr/calendar/crs_new.htm'
p45
sS'Innis College'
p46
S'http://www.artsandscience.utoronto.ca/ofr/calendar/crs_ini.htm'
p47
sS'Academic Bridging Program'
p48
S'http://www.artsandscience.utoronto.ca/ofr/calendar/Academic_Bridging_Program.html'
p49
sS'Materials Science'
p50
S'http://www.artsandscience.utoronto.ca/ofr/calendar/crs_mse.htm'
p51
sS'Ecology and Evolutionary Biology'
p52
S'http://www.artsandscience.utoronto.ca/ofr/calendar/crs_eeb.htm'
p53
sS'History and Philosophy of Science and Technology'
p54
S'http://www.artsandscience.utoronto.ca/ofr/calendar/crs_hps.htm'
p55
sS'Biology'
p56
S'http://www.artsandscience.utoronto.ca/ofr/calendar/crs_bio.htm'
p57
sS'Modern Languages and Literatures'
p58
S'http://www.artsandscience.utoronto.ca/ofr/calendar/crs_mll.htm'
p59
sS'American Studies'
p60
S'http://www.artsandscience.utoronto.ca/ofr/calendar/crs_usa.htm'
p61
sS"St. Michael's College"
p62
S'http://www.artsandscience.utoronto.ca/ofr/calendar/crs_smc.htm'
p63
sS'Asia-Pacific Studies'
p64
S'http://www.artsandscience.utoronto.ca/ofr/calendar/crs_asi.htm'
p65
sS'Immunology'
p66
S'http://www.artsandscience.utoronto.ca/ofr/calendar/crs_imm.htm'
p67
sS'Economics'
p68
S'http://www.artsandscience.utoronto.ca/ofr/calendar/crs_eco.htm'
p69
sS'Drama'
p70
S'http://www.artsandscience.utoronto.ca/ofr/calendar/crs_drm.htm'
p71
sS'Architecture'
p72
S'http://www.artsandscience.utoronto.ca/ofr/calendar/crs_arc.htm'
p73
sS'English'
p74
S'http://www.artsandscience.utoronto.ca/ofr/calendar/crs_eng.htm'
p75
sS'Pharmacology and Toxicology'
p76
S'http://www.artsandscience.utoronto.ca/ofr/calendar/crs_pcl.htm'
p77
sS'Pharmaceutical Chemistry'
p78
S'http://www.artsandscience.utoronto.ca/ofr/calendar/crs_phc.htm'
p79
sS'European Studies'
p80
S'http://www.artsandscience.utoronto.ca/ofr/calendar/crs_eur.htm'
p81
sS'Centre for Jewish Studies'
p82
S'http://www.artsandscience.utoronto.ca/ofr/calendar/crs_cjs.htm'
p83
sS'Joint Courses'
p84
S'http://www.artsandscience.utoronto.ca/ofr/calendar/crs_jxx.htm'
p85
sS'Laboratory Medicine and Pathobiology'
p86
S'http://www.artsandscience.utoronto.ca/ofr/calendar/crs_lmp.htm'
p87
sS'Linguistics'
p88
S'http://www.artsandscience.utoronto.ca/ofr/calendar/crs_lin.htm'
p89
sS'Psychology'
p90
S'http://www.artsandscience.utoronto.ca/ofr/calendar/crs_psy.htm'
p91
sS'Actuarial Science'
p92
S'http://www.artsandscience.utoronto.ca/ofr/calendar/crs_act.htm'
p93
sS'Ethics (Centre for)'
p94
S'http://www.artsandscience.utoronto.ca/ofr/calendar/crs_eth.htm'
p95
sS'Statistics'
p96
S'http://www.artsandscience.utoronto.ca/ofr/calendar/crs_sta.htm'
p97
sS'Music'
p98
S'http://www.artsandscience.utoronto.ca/ofr/calendar/crs_mus.htm'
p99
sS'Political Science'
p100
S'http://www.artsandscience.utoronto.ca/ofr/calendar/crs_pol.htm'
p101
sS'East Asian Studies'
p102
S'http://www.artsandscience.utoronto.ca/ofr/calendar/crs_eas.htm'
p103
sS'Chemistry'
p104
S'http://www.artsandscience.utoronto.ca/ofr/calendar/crs_chm.htm'
p105
sS'Hungarian'
p106
S'http://www.artsandscience.utoronto.ca/ofr/calendar/crs_hun.htm'
p107
sS'Geology'
p108
S'http://www.artsandscience.utoronto.ca/ofr/calendar/crs_glg.htm'
p109
sS'Archaeology'
p110
S'http://www.artsandscience.utoronto.ca/ofr/calendar/crs_arh.htm'
p111
sS'Peace, Conflict and Justice Studies'
p112
S'http://www.artsandscience.utoronto.ca/ofr/calendar/crs_pcs.htm'
p113
sS'Physiology'
p114
S'http://www.artsandscience.utoronto.ca/ofr/calendar/crs_psl.htm'
p115
sS'Centre for Environment'
p116
S'http://www.artsandscience.utoronto.ca/ofr/calendar/crs_env.htm'
p117
sS'Cell and Systems Biology'
p118
S'http://www.artsandscience.utoronto.ca/ofr/calendar/crs_csb.htm'
p119
sS'Diaspora and Transnational Studies'
p120
S'http://www.artsandscience.utoronto.ca/ofr/calendar/crs_dts.htm'
p121
sS'Comparative Literature'
p122
S'http://www.artsandscience.utoronto.ca/ofr/calendar/crs_col.htm'
p123
sS'Forest Conservation'
p124
S'http://www.artsandscience.utoronto.ca/ofr/calendar/crs_for.htm'
p125
sS'Public Policy'
p126
S'http://www.artsandscience.utoronto.ca/ofr/calendar/crs_ppg.htm'
p127
sS'History'
p128
S'http://www.artsandscience.utoronto.ca/ofr/calendar/crs_his.htm'
p129
sS'South Asian Studies'
p130
S'http://www.artsandscience.utoronto.ca/ofr/calendar/crs_sas.htm'
p131
sS'German'
p132
S'http://www.artsandscience.utoronto.ca/ofr/calendar/crs_ger.htm'
p133
sS'Sociology'
p134
S'http://www.artsandscience.utoronto.ca/ofr/calendar/crs_soc.htm'
p135
sS'Victoria College'
p136
S'http://www.artsandscience.utoronto.ca/ofr/calendar/crs_vic.htm'
p137
sS'Planetary Science'
p138
S'http://www.artsandscience.utoronto.ca/ofr/calendar/crs_pln.htm'
p139
sS'Nutritional Science'
p140
S'http://www.artsandscience.utoronto.ca/ofr/calendar/crs_nfs.htm'
p141
sS'199299398399'
p142
S'http://www.artsandscience.utoronto.ca/ofr/calendar/199299398399.html'
p143
sS'Mathematics'
p144
S'http://www.artsandscience.utoronto.ca/ofr/calendar/crs_mat.htm'
p145
sS'Canadian Institute for Theoretical Astrophysics'
p146
S'http://www.artsandscience.utoronto.ca/ofr/calendar/crs_cta.htm'
p147
sS'Writing in the Faculty of Arts &amp; Science'
p148
S'http://www.artsandscience.utoronto.ca/ofr/calendar/Writing_in_the_Faculty_of_Arts_&_Science.html'
p149
sS'Rotman Commerce'
p150
S'http://www.artsandscience.utoronto.ca/ofr/calendar/crs_rsm.htm'
p151
sS'Anatomy'
p152
S'http://www.artsandscience.utoronto.ca/ofr/calendar/crs_ana.htm'
p153
sS'Aboriginal Studies'
p154
S'http://www.artsandscience.utoronto.ca/ofr/calendar/crs_abs.htm'
p155
sS'Near and Middle Eastern Civilizations'
p156
S'http://www.artsandscience.utoronto.ca/ofr/calendar/crs_nmc.htm'
p157
sS'Public Health Sciences'
p158
S'http://www.artsandscience.utoronto.ca/ofr/calendar/crs_phs.htm'
p159
sS'Human Biology'
p160
S'http://www.artsandscience.utoronto.ca/ofr/calendar/crs_hmb.htm'
p161
sS'Physics'
p162
S'http://www.artsandscience.utoronto.ca/ofr/calendar/crs_phy.htm'
p163
sS'Portuguese'
p164
S'http://www.artsandscience.utoronto.ca/ofr/calendar/crs_prt.htm'
p165
sS'Life Sciences'
p166
S'http://www.artsandscience.utoronto.ca/ofr/calendar/Life_Sciences.html'
p167
sS'Spanish'
p168
S'http://www.artsandscience.utoronto.ca/ofr/calendar/crs_spa.htm'
p169
sS'Geography'
p170
S'http://www.artsandscience.utoronto.ca/ofr/calendar/crs_ggr.htm'
p171
sS'Women and Gender Studies'
p172
S'http://www.artsandscience.utoronto.ca/ofr/calendar/crs_wgs.htm'
p173
s.